target datalayout = "e-m:e-p270:32:32-p271:32:32-p272:64:64-i64:64-i128:128-f80:128-n8:16:32:64-S128"
target triple = "x86_64-pc-linux-gnu"

; Function Attrs: nounwind uwtable
define internal i32 @clamp(i32 noundef %0, i32 noundef %1, i32 noundef %2) #0 {
  %4 = alloca i32, align 4
  %5 = alloca i32, align 4
  %6 = alloca i32, align 4
  store i32 %0, ptr %4, align 4
  store i32 %1, ptr %5, align 4
  store i32 %2, ptr %6, align 4
  %7 = load i32, ptr %4, align 4
  %8 = load i32, ptr %5, align 4
  %9 = icmp slt i32 %7, %8
  br i1 %9, label %10, label %12

10:                                               ; preds = %3
  %11 = load i32, ptr %5, align 4
  br label %22

12:                                               ; preds = %3
  %13 = load i32, ptr %4, align 4
  %14 = load i32, ptr %6, align 4
  %15 = icmp sgt i32 %13, %14
  br i1 %15, label %16, label %18

16:                                               ; preds = %12
  %17 = load i32, ptr %6, align 4
  br label %20

18:                                               ; preds = %12
  %19 = load i32, ptr %4, align 4
  br label %20

20:                                               ; preds = %18, %16
  %21 = phi i32 [ %17, %16 ], [ %19, %18 ]
  br label %22

22:                                               ; preds = %20, %10
  %23 = phi i32 [ %11, %10 ], [ %21, %20 ]
  ret i32 %23
}

; Function Attrs: nounwind uwtable
define internal zeroext i16 @clip_pixel_highbd(i32 noundef %0, i32 noundef %1) #0 {
  %3 = alloca i16, align 2
  %4 = alloca i32, align 4
  %5 = alloca i32, align 4
  store i32 %0, ptr %4, align 4
  store i32 %1, ptr %5, align 4
  %6 = load i32, ptr %5, align 4
  switch i32 %6, label %8 [
    i32 8, label %7
    i32 10, label %12
    i32 12, label %16
  ]

7:                                                ; preds = %2
  br label %8

8:                                                ; preds = %7, %2
  %9 = load i32, ptr %4, align 4
  %10 = call i32 @clamp(i32 noundef %9, i32 noundef 0, i32 noundef 255)
  %11 = trunc i32 %10 to i16
  store i16 %11, ptr %3, align 2
  br label %20

12:                                               ; preds = %2
  %13 = load i32, ptr %4, align 4
  %14 = call i32 @clamp(i32 noundef %13, i32 noundef 0, i32 noundef 1023)
  %15 = trunc i32 %14 to i16
  store i16 %15, ptr %3, align 2
  br label %20

16:                                               ; preds = %2
  %17 = load i32, ptr %4, align 4
  %18 = call i32 @clamp(i32 noundef %17, i32 noundef 0, i32 noundef 4095)
  %19 = trunc i32 %18 to i16
  store i16 %19, ptr %3, align 2
  br label %20

20:                                               ; preds = %16, %12, %8
  %21 = load i16, ptr %3, align 2
  ret i16 %21
}

; Function Attrs: nounwind uwtable
define internal i32 @highbd_horz_scalar_product(ptr noundef %0, ptr noundef %1) #0 {
  %3 = alloca ptr, align 8
  %4 = alloca ptr, align 8
  %5 = alloca i32, align 4
  %6 = alloca i32, align 4
  store ptr %0, ptr %3, align 8
  store ptr %1, ptr %4, align 8
  store i32 0, ptr %5, align 4
  store i32 0, ptr %6, align 4
  br label %7

7:                                                ; preds = %26, %2
  %8 = load i32, ptr %6, align 4
  %9 = icmp slt i32 %8, 8
  br i1 %9, label %10, label %29

10:                                               ; preds = %7
  %11 = load ptr, ptr %3, align 8
  %12 = load i32, ptr %6, align 4
  %13 = sext i32 %12 to i64
  %14 = getelementptr inbounds i16, ptr %11, i64 %13
  %15 = load i16, ptr %14, align 2
  %16 = zext i16 %15 to i32
  %17 = load ptr, ptr %4, align 8
  %18 = load i32, ptr %6, align 4
  %19 = sext i32 %18 to i64
  %20 = getelementptr inbounds i16, ptr %17, i64 %19
  %21 = load i16, ptr %20, align 2
  %22 = sext i16 %21 to i32
  %23 = mul nsw i32 %16, %22
  %24 = load i32, ptr %5, align 4
  %25 = add nsw i32 %24, %23
  store i32 %25, ptr %5, align 4
  br label %26

26:                                               ; preds = %10
  %27 = load i32, ptr %6, align 4
  %28 = add nsw i32 %27, 1
  store i32 %28, ptr %6, align 4
  br label %7, !llvm.loop !17

29:                                               ; preds = %7
  %30 = load i32, ptr %5, align 4
  ret i32 %30
}

; Function Attrs: nounwind uwtable
define internal void @highbd_convolve_horiz(ptr noundef %0, i64 noundef %1, ptr noundef %2, i64 noundef %3, ptr noundef %4, i32 noundef %5, i32 noundef %6, i32 noundef %7, i32 noundef %8, i32 noundef %9) #0 {
  %11 = alloca ptr, align 8
  %12 = alloca i64, align 8
  %13 = alloca ptr, align 8
  %14 = alloca i64, align 8
  %15 = alloca ptr, align 8
  %16 = alloca i32, align 4
  %17 = alloca i32, align 4
  %18 = alloca i32, align 4
  %19 = alloca i32, align 4
  %20 = alloca i32, align 4
  %21 = alloca ptr, align 8
  %22 = alloca ptr, align 8
  %23 = alloca i32, align 4
  %24 = alloca i32, align 4
  %25 = alloca i32, align 4
  %26 = alloca ptr, align 8
  %27 = alloca ptr, align 8
  %28 = alloca i32, align 4
  store ptr %0, ptr %11, align 8
  store i64 %1, ptr %12, align 8
  store ptr %2, ptr %13, align 8
  store i64 %3, ptr %14, align 8
  store ptr %4, ptr %15, align 8
  store i32 %5, ptr %16, align 4
  store i32 %6, ptr %17, align 4
  store i32 %7, ptr %18, align 4
  store i32 %8, ptr %19, align 4
  store i32 %9, ptr %20, align 4
  %29 = load ptr, ptr %11, align 8
  %30 = ptrtoint ptr %29 to i64
  %31 = shl i64 %30, 1
  %32 = inttoptr i64 %31 to ptr
  store ptr %32, ptr %21, align 8
  %33 = load ptr, ptr %13, align 8
  %34 = ptrtoint ptr %33 to i64
  %35 = shl i64 %34, 1
  %36 = inttoptr i64 %35 to ptr
  store ptr %36, ptr %22, align 8
  %37 = load ptr, ptr %21, align 8
  %38 = getelementptr inbounds i16, ptr %37, i64 -3
  store ptr %38, ptr %21, align 8
  store i32 0, ptr %23, align 4
  br label %39

39:                                               ; preds = %86, %10
  %40 = load i32, ptr %23, align 4
  %41 = load i32, ptr %19, align 4
  %42 = icmp slt i32 %40, %41
  br i1 %42, label %43, label %89

43:                                               ; preds = %39
  %44 = load i32, ptr %16, align 4
  store i32 %44, ptr %24, align 4
  store i32 0, ptr %25, align 4
  br label %45

45:                                               ; preds = %76, %43
  %46 = load i32, ptr %25, align 4
  %47 = load i32, ptr %18, align 4
  %48 = icmp slt i32 %46, %47
  br i1 %48, label %49, label %79

49:                                               ; preds = %45
  %50 = load ptr, ptr %21, align 8
  %51 = load i32, ptr %24, align 4
  %52 = ashr i32 %51, 4
  %53 = sext i32 %52 to i64
  %54 = getelementptr inbounds i16, ptr %50, i64 %53
  store ptr %54, ptr %26, align 8
  %55 = load ptr, ptr %15, align 8
  %56 = load i32, ptr %24, align 4
  %57 = and i32 %56, 15
  %58 = sext i32 %57 to i64
  %59 = getelementptr inbounds [8 x i16], ptr %55, i64 %58
  %60 = getelementptr inbounds [8 x i16], ptr %59, i64 0, i64 0
  store ptr %60, ptr %27, align 8
  %61 = load ptr, ptr %26, align 8
  %62 = load ptr, ptr %27, align 8
  %63 = call i32 @highbd_horz_scalar_product(ptr noundef %61, ptr noundef %62)
  store i32 %63, ptr %28, align 4
  %64 = load i32, ptr %28, align 4
  %65 = add nsw i32 %64, 64
  %66 = ashr i32 %65, 7
  %67 = load i32, ptr %20, align 4
  %68 = call zeroext i16 @clip_pixel_highbd(i32 noundef %66, i32 noundef %67)
  %69 = load ptr, ptr %22, align 8
  %70 = load i32, ptr %25, align 4
  %71 = sext i32 %70 to i64
  %72 = getelementptr inbounds i16, ptr %69, i64 %71
  store i16 %68, ptr %72, align 2
  %73 = load i32, ptr %17, align 4
  %74 = load i32, ptr %24, align 4
  %75 = add nsw i32 %74, %73
  store i32 %75, ptr %24, align 4
  br label %76

76:                                               ; preds = %49
  %77 = load i32, ptr %25, align 4
  %78 = add nsw i32 %77, 1
  store i32 %78, ptr %25, align 4
  br label %45, !llvm.loop !10

79:                                               ; preds = %45
  %80 = load i64, ptr %12, align 8
  %81 = load ptr, ptr %21, align 8
  %82 = getelementptr inbounds i16, ptr %81, i64 %80
  store ptr %82, ptr %21, align 8
  %83 = load i64, ptr %14, align 8
  %84 = load ptr, ptr %22, align 8
  %85 = getelementptr inbounds i16, ptr %84, i64 %83
  store ptr %85, ptr %22, align 8
  br label %86

86:                                               ; preds = %79
  %87 = load i32, ptr %23, align 4
  %88 = add nsw i32 %87, 1
  store i32 %88, ptr %23, align 4
  br label %39, !llvm.loop !11

89:                                               ; preds = %39
  ret void
}

; Function Attrs: nounwind uwtable
define internal i32 @get_filter_offset(ptr noundef %0, ptr noundef %1) #0 {
  %3 = alloca ptr, align 8
  %4 = alloca ptr, align 8
  store ptr %0, ptr %3, align 8
  store ptr %1, ptr %4, align 8
  %5 = load ptr, ptr %3, align 8
  %6 = ptrtoint ptr %5 to i64
  %7 = inttoptr i64 %6 to ptr
  %8 = load ptr, ptr %4, align 8
  %9 = ptrtoint ptr %7 to i64
  %10 = ptrtoint ptr %8 to i64
  %11 = sub i64 %9, %10
  %12 = sdiv exact i64 %11, 16
  %13 = trunc i64 %12 to i32
  ret i32 %13
}

; Function Attrs: nounwind uwtable
define internal ptr @get_filter_base(ptr noundef %0) #0 {
  %2 = alloca ptr, align 8
  store ptr %0, ptr %2, align 8
  %3 = load ptr, ptr %2, align 8
  %4 = ptrtoint ptr %3 to i64
  %5 = and i64 %4, -256
  %6 = inttoptr i64 %5 to ptr
  ret ptr %6
}

; Function Attrs: nounwind uwtable
define hidden void @aom_highbd_convolve8_horiz_c(ptr noundef %0, i64 noundef %1, ptr noundef %2, i64 noundef %3, ptr noundef %4, i32 noundef %5, ptr noundef %6, i32 noundef %7, i32 noundef %8, i32 noundef %9, i32 noundef %10) #0 {
  %12 = alloca ptr, align 8
  %13 = alloca i64, align 8
  %14 = alloca ptr, align 8
  %15 = alloca i64, align 8
  %16 = alloca ptr, align 8
  %17 = alloca i32, align 4
  %18 = alloca ptr, align 8
  %19 = alloca i32, align 4
  %20 = alloca i32, align 4
  %21 = alloca i32, align 4
  %22 = alloca i32, align 4
  %23 = alloca ptr, align 8
  %24 = alloca i32, align 4
  store ptr %0, ptr %12, align 8
  store i64 %1, ptr %13, align 8
  store ptr %2, ptr %14, align 8
  store i64 %3, ptr %15, align 8
  store ptr %4, ptr %16, align 8
  store i32 %5, ptr %17, align 4
  store ptr %6, ptr %18, align 8
  store i32 %7, ptr %19, align 4
  store i32 %8, ptr %20, align 4
  store i32 %9, ptr %21, align 4
  store i32 %10, ptr %22, align 4
  %25 = load ptr, ptr %16, align 8
  %26 = call ptr @get_filter_base(ptr noundef %25)
  store ptr %26, ptr %23, align 8
  %27 = load ptr, ptr %16, align 8
  %28 = load ptr, ptr %23, align 8
  %29 = call i32 @get_filter_offset(ptr noundef %27, ptr noundef %28)
  store i32 %29, ptr %24, align 4
  %30 = load ptr, ptr %12, align 8
  %31 = load i64, ptr %13, align 8
  %32 = load ptr, ptr %14, align 8
  %33 = load i64, ptr %15, align 8
  %34 = load ptr, ptr %23, align 8
  %35 = load i32, ptr %24, align 4
  %36 = load i32, ptr %17, align 4
  %37 = load i32, ptr %20, align 4
  %38 = load i32, ptr %21, align 4
  %39 = load i32, ptr %22, align 4
  call void @highbd_convolve_horiz(ptr noundef %30, i64 noundef %31, ptr noundef %32, i64 noundef %33, ptr noundef %34, i32 noundef %35, i32 noundef %36, i32 noundef %37, i32 noundef %38, i32 noundef %39)
  ret void
}