; Function Attrs: nofree norecurse nosync nounwind memory(readwrite, inaccessiblemem: none) uwtable
define hidden void @aom_highbd_convolve8_horiz_c(ptr noundef %0, i64 noundef %1, ptr noundef %2, i64 noundef %3, ptr noundef %4, i32 noundef %5, ptr nocapture noundef readnone %6, i32 noundef %7, i32 noundef %8, i32 noundef %9, i32 noundef %10) local_unnamed_addr #3 {
  %12 = ptrtoint ptr %4 to i64
  %13 = and i64 %12, -256
  %14 = inttoptr i64 %13 to ptr
  %15 = trunc i64 %12 to i32
  %16 = lshr i32 %15, 4
  %17 = and i32 %16, 15
  %18 = icmp sgt i32 %9, 0
  %19 = icmp sgt i32 %8, 0
  %or.cond.i = and i1 %19, %18
  br i1 %or.cond.i, label %.preheader.lr.ph.split.us.i, label %highbd_convolve_horiz.exit

.preheader.lr.ph.split.us.i:                      ; preds = %11
  %20 = ptrtoint ptr %0 to i64
  %21 = shl i64 %20, 1
  %22 = inttoptr i64 %21 to ptr
  %23 = getelementptr inbounds i8, ptr %22, i64 -6
  %24 = ptrtoint ptr %2 to i64
  %25 = shl i64 %24, 1
  %26 = inttoptr i64 %25 to ptr
  %wide.trip.count86.i = zext nneg i32 %8 to i64
  switch i32 %10, label %.preheader.us.i [
    i32 12, label %.preheader.us.us.i
    i32 10, label %.preheader.us.us64.i
  ]

.preheader.us.us.i:                               ; preds = %.preheader.lr.ph.split.us.i, %._crit_edge.split.us.us.us.i
  %.047.us.us.i = phi ptr [ %50, %._crit_edge.split.us.us.us.i ], [ %23, %.preheader.lr.ph.split.us.i ]
  %.02544.us.us.i = phi ptr [ %51, %._crit_edge.split.us.us.us.i ], [ %26, %.preheader.lr.ph.split.us.i ]
  %.02643.us.us.i = phi i32 [ %52, %._crit_edge.split.us.us.us.i ], [ 0, %.preheader.lr.ph.split.us.i ]
  br label %27

27:                                               ; preds = %highbd_horz_scalar_product.exit.us.us.us.i, %.preheader.us.us.i
  %indvars.iv77.i = phi i64 [ %indvars.iv.next78.i, %highbd_horz_scalar_product.exit.us.us.us.i ], [ 0, %.preheader.us.us.i ]
  %.02829.us.us.us.i = phi i32 [ %49, %highbd_horz_scalar_product.exit.us.us.us.i ], [ %17, %.preheader.us.us.i ]
  %28 = ashr i32 %.02829.us.us.us.i, 4
  %29 = sext i32 %28 to i64
  %30 = getelementptr inbounds i16, ptr %.047.us.us.i, i64 %29
  %31 = and i32 %.02829.us.us.us.i, 15
  %32 = zext nneg i32 %31 to i64
  %33 = getelementptr inbounds [8 x i16], ptr %14, i64 %32
  br label %34

34:                                               ; preds = %34, %27
  %indvars.iv.i.us.us.us.i = phi i64 [ 0, %27 ], [ %indvars.iv.next.i.us.us.us.i, %34 ]
  %.078.i.us.us.us.i = phi i32 [ 0, %27 ], [ %42, %34 ]
  %35 = getelementptr inbounds i16, ptr %30, i64 %indvars.iv.i.us.us.us.i
  %36 = load i16, ptr %35, align 2
  %37 = zext i16 %36 to i32
  %38 = getelementptr inbounds i16, ptr %33, i64 %indvars.iv.i.us.us.us.i
  %39 = load i16, ptr %38, align 2
  %40 = sext i16 %39 to i32
  %41 = mul nsw i32 %40, %37
  %42 = add nsw i32 %41, %.078.i.us.us.us.i
  %indvars.iv.next.i.us.us.us.i = add nuw nsw i64 %indvars.iv.i.us.us.us.i, 1
  %exitcond.not.i.us.us.us.i = icmp eq i64 %indvars.iv.next.i.us.us.us.i, 8
  br i1 %exitcond.not.i.us.us.us.i, label %highbd_horz_scalar_product.exit.us.us.us.i, label %34, !llvm.loop !12

highbd_horz_scalar_product.exit.us.us.us.i:       ; preds = %34
  %43 = add nsw i32 %42, 64
  %44 = ashr i32 %43, 7
  %45 = tail call i32 @llvm.umin.i32(i32 %44, i32 4095)
  %46 = icmp slt i32 %44, 0
  %47 = trunc nuw nsw i32 %45 to i16
  %.0.i.us.us.us.i = select i1 %46, i16 0, i16 %47
  %48 = getelementptr inbounds i16, ptr %.02544.us.us.i, i64 %indvars.iv77.i
  store i16 %.0.i.us.us.us.i, ptr %48, align 2
  %49 = add nsw i32 %.02829.us.us.us.i, %5
  %indvars.iv.next78.i = add nuw nsw i64 %indvars.iv77.i, 1
  %exitcond81.not.i = icmp eq i64 %indvars.iv.next78.i, %wide.trip.count86.i
  br i1 %exitcond81.not.i, label %._crit_edge.split.us.us.us.i, label %27, !llvm.loop !13

._crit_edge.split.us.us.us.i:                     ; preds = %highbd_horz_scalar_product.exit.us.us.us.i
  %50 = getelementptr inbounds i16, ptr %.047.us.us.i, i64 %1
  %51 = getelementptr inbounds i16, ptr %.02544.us.us.i, i64 %3
  %52 = add nuw nsw i32 %.02643.us.us.i, 1
  %exitcond82.not.i = icmp eq i32 %52, %9
  br i1 %exitcond82.not.i, label %highbd_convolve_horiz.exit, label %.preheader.us.us.i, !llvm.loop !14

.preheader.us.us64.i:                             ; preds = %.preheader.lr.ph.split.us.i, %._crit_edge.split.split.us.us.us.i
  %.047.us.us65.i = phi ptr [ %76, %._crit_edge.split.split.us.us.us.i ], [ %23, %.preheader.lr.ph.split.us.i ]
  %.02544.us.us66.i = phi ptr [ %77, %._crit_edge.split.split.us.us.us.i ], [ %26, %.preheader.lr.ph.split.us.i ]
  %.02643.us.us67.i = phi i32 [ %78, %._crit_edge.split.split.us.us.us.i ], [ 0, %.preheader.lr.ph.split.us.i ]
  br label %53

53:                                               ; preds = %highbd_horz_scalar_product.exit.us38.us.us.i, %.preheader.us.us64.i
  %indvars.iv.i = phi i64 [ %indvars.iv.next.i, %highbd_horz_scalar_product.exit.us38.us.us.i ], [ 0, %.preheader.us.us64.i ]
  %.02829.us33.us.us.i = phi i32 [ %75, %highbd_horz_scalar_product.exit.us38.us.us.i ], [ %17, %.preheader.us.us64.i ]
  %54 = ashr i32 %.02829.us33.us.us.i, 4
  %55 = sext i32 %54 to i64
  %56 = getelementptr inbounds i16, ptr %.047.us.us65.i, i64 %55
  %57 = and i32 %.02829.us33.us.us.i, 15
  %58 = zext nneg i32 %57 to i64
  %59 = getelementptr inbounds [8 x i16], ptr %14, i64 %58
  br label %60

60:                                               ; preds = %60, %53
  %indvars.iv.i.us34.us.us.i = phi i64 [ 0, %53 ], [ %indvars.iv.next.i.us36.us.us.i, %60 ]
  %.078.i.us35.us.us.i = phi i32 [ 0, %53 ], [ %68, %60 ]
  %61 = getelementptr inbounds i16, ptr %56, i64 %indvars.iv.i.us34.us.us.i
  %62 = load i16, ptr %61, align 2
  %63 = zext i16 %62 to i32
  %64 = getelementptr inbounds i16, ptr %59, i64 %indvars.iv.i.us34.us.us.i
  %65 = load i16, ptr %64, align 2
  %66 = sext i16 %65 to i32
  %67 = mul nsw i32 %66, %63
  %68 = add nsw i32 %67, %.078.i.us35.us.us.i
  %indvars.iv.next.i.us36.us.us.i = add nuw nsw i64 %indvars.iv.i.us34.us.us.i, 1
  %exitcond.not.i.us37.us.us.i = icmp eq i64 %indvars.iv.next.i.us36.us.us.i, 8
  br i1 %exitcond.not.i.us37.us.us.i, label %highbd_horz_scalar_product.exit.us38.us.us.i, label %60, !llvm.loop !12

highbd_horz_scalar_product.exit.us38.us.us.i:     ; preds = %60
  %69 = add nsw i32 %68, 64
  %70 = ashr i32 %69, 7
  %71 = tail call i32 @llvm.umin.i32(i32 %70, i32 1023)
  %72 = icmp slt i32 %70, 0
  %73 = trunc nuw nsw i32 %71 to i16
  %.0.i.us42.us.us.i = select i1 %72, i16 0, i16 %73
  %74 = getelementptr inbounds i16, ptr %.02544.us.us66.i, i64 %indvars.iv.i
  store i16 %.0.i.us42.us.us.i, ptr %74, align 2
  %75 = add nsw i32 %.02829.us33.us.us.i, %5
  %indvars.iv.next.i = add nuw nsw i64 %indvars.iv.i, 1
  %exitcond.not.i = icmp eq i64 %indvars.iv.next.i, %wide.trip.count86.i
  br i1 %exitcond.not.i, label %._crit_edge.split.split.us.us.us.i, label %53, !llvm.loop !13

._crit_edge.split.split.us.us.us.i:               ; preds = %highbd_horz_scalar_product.exit.us38.us.us.i
  %76 = getelementptr inbounds i16, ptr %.047.us.us65.i, i64 %1
  %77 = getelementptr inbounds i16, ptr %.02544.us.us66.i, i64 %3
  %78 = add nuw nsw i32 %.02643.us.us67.i, 1
  %exitcond76.not.i = icmp eq i32 %78, %9
  br i1 %exitcond76.not.i, label %highbd_convolve_horiz.exit, label %.preheader.us.us64.i, !llvm.loop !14

.preheader.us.i:                                  ; preds = %.preheader.lr.ph.split.us.i, %._crit_edge.split.split.us60.i
  %.047.us.i = phi ptr [ %102, %._crit_edge.split.split.us60.i ], [ %23, %.preheader.lr.ph.split.us.i ]
  %.02544.us.i = phi ptr [ %103, %._crit_edge.split.split.us60.i ], [ %26, %.preheader.lr.ph.split.us.i ]
  %.02643.us.i = phi i32 [ %104, %._crit_edge.split.split.us60.i ], [ 0, %.preheader.lr.ph.split.us.i ]
  br label %79

79:                                               ; preds = %highbd_horz_scalar_product.exit.us57.i, %.preheader.us.i
  %indvars.iv83.i = phi i64 [ 0, %.preheader.us.i ], [ %indvars.iv.next84.i, %highbd_horz_scalar_product.exit.us57.i ]
  %.02829.us52.i = phi i32 [ %17, %.preheader.us.i ], [ %101, %highbd_horz_scalar_product.exit.us57.i ]
  %80 = ashr i32 %.02829.us52.i, 4
  %81 = sext i32 %80 to i64
  %82 = getelementptr inbounds i16, ptr %.047.us.i, i64 %81
  %83 = and i32 %.02829.us52.i, 15
  %84 = zext nneg i32 %83 to i64
  %85 = getelementptr inbounds [8 x i16], ptr %14, i64 %84
  br label %86

86:                                               ; preds = %86, %79
  %indvars.iv.i.us53.i = phi i64 [ 0, %79 ], [ %indvars.iv.next.i.us55.i, %86 ]
  %.078.i.us54.i = phi i32 [ 0, %79 ], [ %94, %86 ]
  %87 = getelementptr inbounds i16, ptr %82, i64 %indvars.iv.i.us53.i
  %88 = load i16, ptr %87, align 2
  %89 = zext i16 %88 to i32
  %90 = getelementptr inbounds i16, ptr %85, i64 %indvars.iv.i.us53.i
  %91 = load i16, ptr %90, align 2
  %92 = sext i16 %91 to i32
  %93 = mul nsw i32 %92, %89
  %94 = add nsw i32 %93, %.078.i.us54.i
  %indvars.iv.next.i.us55.i = add nuw nsw i64 %indvars.iv.i.us53.i, 1
  %exitcond.not.i.us56.i = icmp eq i64 %indvars.iv.next.i.us55.i, 8
  br i1 %exitcond.not.i.us56.i, label %highbd_horz_scalar_product.exit.us57.i, label %86, !llvm.loop !12

highbd_horz_scalar_product.exit.us57.i:           ; preds = %86
  %95 = add nsw i32 %94, 64
  %96 = ashr i32 %95, 7
  %97 = tail call i32 @llvm.umin.i32(i32 %96, i32 255)
  %98 = icmp slt i32 %96, 0
  %99 = trunc nuw nsw i32 %97 to i16
  %.0.i.us59.i = select i1 %98, i16 0, i16 %99
  %100 = getelementptr inbounds i16, ptr %.02544.us.i, i64 %indvars.iv83.i
  store i16 %.0.i.us59.i, ptr %100, align 2
  %101 = add nsw i32 %.02829.us52.i, %5
  %indvars.iv.next84.i = add nuw nsw i64 %indvars.iv83.i, 1
  %exitcond87.not.i = icmp eq i64 %indvars.iv.next84.i, %wide.trip.count86.i
  br i1 %exitcond87.not.i, label %._crit_edge.split.split.us60.i, label %79, !llvm.loop !13

._crit_edge.split.split.us60.i:                   ; preds = %highbd_horz_scalar_product.exit.us57.i
  %102 = getelementptr inbounds i16, ptr %.047.us.i, i64 %1
  %103 = getelementptr inbounds i16, ptr %.02544.us.i, i64 %3
  %104 = add nuw nsw i32 %.02643.us.i, 1
  %exitcond88.not.i = icmp eq i32 %104, %9
  br i1 %exitcond88.not.i, label %highbd_convolve_horiz.exit, label %.preheader.us.i, !llvm.loop !14

highbd_convolve_horiz.exit:                       ; preds = %._crit_edge.split.split.us.us.us.i, %._crit_edge.split.us.us.us.i, %._crit_edge.split.split.us60.i, %11
  ret void
}